target datalayout = "e-m:e-p270:32:32-p271:32:32-p272:64:64-i64:64-i128:128-f80:128-n8:16:32:64-S128"
target triple = "x86_64-pc-linux-gnu"

%"class.TCPStreamDialog::GraphUpdater" = type <{ ptr, ptr, i8, [7 x i8] }>

; Function Attrs: mustprogress nounwind uwtable
define linkonce_odr noundef zeroext i1 @_ZN15TCPStreamDialog12GraphUpdater16hasPendingUpdateEv(ptr noundef nonnull align 8 dereferenceable(17) %0) #2 comdat align 2 {
  %2 = alloca ptr, align 8
  store ptr %0, ptr %2, align 8
  %3 = load ptr, ptr %2, align 8
  %4 = getelementptr inbounds %"class.TCPStreamDialog::GraphUpdater", ptr %3, i32 0, i32 1
  %5 = load ptr, ptr %4, align 8
  %6 = icmp ne ptr %5, null
  ret i1 %6
}

; Function Attrs: mustprogress uwtable
define void @_ZN15TCPStreamDialog12GraphUpdater18clearPendingUpdateEv(ptr noundef nonnull align 8 dereferenceable(17) %0) #1 align 2 {
  %2 = alloca ptr, align 8
  store ptr %0, ptr %2, align 8
  %3 = load ptr, ptr %2, align 8
  %4 = call noundef zeroext i1 @_ZN15TCPStreamDialog12GraphUpdater16hasPendingUpdateEv(ptr noundef nonnull align 8 dereferenceable(17) %3)
  br i1 %4, label %5, label %23

5:                                                ; preds = %1
  %6 = getelementptr inbounds %"class.TCPStreamDialog::GraphUpdater", ptr %3, i32 0, i32 1
  %7 = load ptr, ptr %6, align 8
  %8 = call noundef zeroext i1 @_ZNK6QTimer8isActiveEv(ptr noundef nonnull align 8 dereferenceable(16) %7)
  br i1 %8, label %9, label %12

9:                                                ; preds = %5
  %10 = getelementptr inbounds %"class.TCPStreamDialog::GraphUpdater", ptr %3, i32 0, i32 1
  %11 = load ptr, ptr %10, align 8
  call void @_ZN6QTimer4stopEv(ptr noundef nonnull align 8 dereferenceable(16) %11)
  br label %12

12:                                               ; preds = %9, %5
  %13 = getelementptr inbounds %"class.TCPStreamDialog::GraphUpdater", ptr %3, i32 0, i32 1
  %14 = load ptr, ptr %13, align 8
  %15 = icmp eq ptr %14, null
  br i1 %15, label %20, label %16

16:                                               ; preds = %12
  %17 = load ptr, ptr %14, align 8
  %18 = getelementptr inbounds ptr, ptr %17, i64 4
  %19 = load ptr, ptr %18, align 8
  call void %19(ptr noundef nonnull align 8 dereferenceable(16) %14) #3
  br label %20

20:                                               ; preds = %16, %12
  %21 = getelementptr inbounds %"class.TCPStreamDialog::GraphUpdater", ptr %3, i32 0, i32 1
  store ptr null, ptr %21, align 8
  %22 = getelementptr inbounds %"class.TCPStreamDialog::GraphUpdater", ptr %3, i32 0, i32 2
  store i8 0, ptr %22, align 8
  br label %23

23:                                               ; preds = %20, %1
  ret void
}