; Function Attrs: mustprogress uwtable
define void @_ZN15TCPStreamDialog12GraphUpdater18clearPendingUpdateEv(ptr nocapture noundef nonnull align 8 dereferenceable(17) %0) local_unnamed_addr #2 align 2 {
  %2 = getelementptr inbounds i8, ptr %0, i64 8
  %3 = load ptr, ptr %2, align 8
  %.not = icmp eq ptr %3, null
  br i1 %.not, label %17, label %4

4:                                                ; preds = %1
  %5 = tail call noundef zeroext i1 @_ZNK6QTimer8isActiveEv(ptr noundef nonnull align 8 dereferenceable(16) %3)
  br i1 %5, label %6, label %8

6:                                                ; preds = %4
  %7 = load ptr, ptr %2, align 8
  tail call void @_ZN6QTimer4stopEv(ptr noundef nonnull align 8 dereferenceable(16) %7)
  br label %8

8:                                                ; preds = %6, %4
  %9 = load ptr, ptr %2, align 8
  %10 = icmp eq ptr %9, null
  br i1 %10, label %15, label %11

11:                                               ; preds = %8
  %12 = load ptr, ptr %9, align 8
  %13 = getelementptr inbounds i8, ptr %12, i64 32
  %14 = load ptr, ptr %13, align 8
  tail call void %14(ptr noundef nonnull align 8 dereferenceable(16) %9) #24
  br label %15

15:                                               ; preds = %11, %8
  store ptr null, ptr %2, align 8
  %16 = getelementptr inbounds i8, ptr %0, i64 16
  store i8 0, ptr %16, align 8
  br label %17

17:                                               ; preds = %15, %1
  ret void
}